target datalayout = "e-m:e-p270:32:32-p271:32:32-p272:64:64-i64:64-i128:128-f80:128-n8:16:32:64-S128"
target triple = "x86_64-pc-linux-gnu"

%struct.jpeg_decompress_struct = type { ptr, ptr, ptr, ptr, i32, i32, ptr, i32, i32, i32, i32, i32, i32, i32, double, i32, i32, i32, i32, i32, i32, i32, i32, i32, i32, i32, i32, i32, i32, i32, i32, i32, i32, ptr, i32, i32, i32, i32, i32, ptr, [4 x ptr], [4 x ptr], [4 x ptr], i32, ptr, i32, i32, [16 x i8], [16 x i8], [16 x i8], i32, i32, i8, i8, i8, i16, i16, i32, i8, i32, ptr, i32, i32, i32, i32, ptr, i32, [4 x ptr], i32, i32, i32, [10 x i32], i32, i32, i32, i32, i32, ptr, ptr, ptr, ptr, ptr, ptr, ptr, ptr, ptr, ptr, ptr }
%struct.my_cquantizer = type { %struct.jpeg_color_quantizer, ptr, i32, ptr, i32, ptr, i32, ptr }
%struct.jpeg_color_quantizer = type { ptr, ptr, ptr, ptr, ptr }

; Function Attrs: nounwind uwtable
define internal void @prescan_quantize(ptr noundef %0, ptr noundef %1, ptr noundef %2, i32 noundef %3) #0 {
  %5 = alloca ptr, align 8
  %6 = alloca ptr, align 8
  %7 = alloca ptr, align 8
  %8 = alloca i32, align 4
  %9 = alloca ptr, align 8
  %10 = alloca ptr, align 8
  %11 = alloca ptr, align 8
  %12 = alloca ptr, align 8
  %13 = alloca i32, align 4
  %14 = alloca i32, align 4
  %15 = alloca i32, align 4
  store ptr %0, ptr %5, align 8, !tbaa !3
  store ptr %1, ptr %6, align 8, !tbaa !81
  store ptr %2, ptr %7, align 8, !tbaa !81
  store i32 %3, ptr %8, align 4, !tbaa !57
  call void @llvm.lifetime.start.p0(i64 8, ptr %9) #3
  %16 = load ptr, ptr %5, align 8, !tbaa !3
  %17 = getelementptr inbounds nuw %struct.jpeg_decompress_struct, ptr %16, i32 0, i32 87
  %18 = load ptr, ptr %17, align 8, !tbaa !42
  store ptr %18, ptr %9, align 8, !tbaa !41
  call void @llvm.lifetime.start.p0(i64 8, ptr %10) #3
  call void @llvm.lifetime.start.p0(i64 8, ptr %11) #3
  call void @llvm.lifetime.start.p0(i64 8, ptr %12) #3
  %19 = load ptr, ptr %9, align 8, !tbaa !41
  %20 = getelementptr inbounds nuw %struct.my_cquantizer, ptr %19, i32 0, i32 3
  %21 = load ptr, ptr %20, align 8, !tbaa !56
  store ptr %21, ptr %12, align 8, !tbaa !70
  call void @llvm.lifetime.start.p0(i64 4, ptr %13) #3
  call void @llvm.lifetime.start.p0(i64 4, ptr %14) #3
  call void @llvm.lifetime.start.p0(i64 4, ptr %15) #3
  %22 = load ptr, ptr %5, align 8, !tbaa !3
  %23 = getelementptr inbounds nuw %struct.jpeg_decompress_struct, ptr %22, i32 0, i32 27
  %24 = load i32, ptr %23, align 8, !tbaa !69
  store i32 %24, ptr %15, align 4, !tbaa !57
  store i32 0, ptr %13, align 4, !tbaa !57
  br label %25

25:                                               ; preds = %79, %4
  %26 = load i32, ptr %13, align 4, !tbaa !57
  %27 = load i32, ptr %8, align 4, !tbaa !57
  %28 = icmp slt i32 %26, %27
  br i1 %28, label %29, label %82

29:                                               ; preds = %25
  %30 = load ptr, ptr %6, align 8, !tbaa !81
  %31 = load i32, ptr %13, align 4, !tbaa !57
  %32 = sext i32 %31 to i64
  %33 = getelementptr inbounds ptr, ptr %30, i64 %32
  %34 = load ptr, ptr %33, align 8, !tbaa !82
  store ptr %34, ptr %10, align 8, !tbaa !82
  %35 = load i32, ptr %15, align 4, !tbaa !57
  store i32 %35, ptr %14, align 4, !tbaa !57
  br label %36

36:                                               ; preds = %75, %29
  %37 = load i32, ptr %14, align 4, !tbaa !57
  %38 = icmp ugt i32 %37, 0
  br i1 %38, label %39, label %78

39:                                               ; preds = %36
  %40 = load ptr, ptr %12, align 8, !tbaa !70
  %41 = load ptr, ptr %10, align 8, !tbaa !82
  %42 = getelementptr inbounds i8, ptr %41, i64 0
  %43 = load i8, ptr %42, align 1, !tbaa !36
  %44 = zext i8 %43 to i32
  %45 = ashr i32 %44, 3
  %46 = sext i32 %45 to i64
  %47 = getelementptr inbounds ptr, ptr %40, i64 %46
  %48 = load ptr, ptr %47, align 8, !tbaa !59
  %49 = load ptr, ptr %10, align 8, !tbaa !82
  %50 = getelementptr inbounds i8, ptr %49, i64 1
  %51 = load i8, ptr %50, align 1, !tbaa !36
  %52 = zext i8 %51 to i32
  %53 = ashr i32 %52, 2
  %54 = sext i32 %53 to i64
  %55 = getelementptr inbounds [32 x i16], ptr %48, i64 %54
  %56 = load ptr, ptr %10, align 8, !tbaa !82
  %57 = getelementptr inbounds i8, ptr %56, i64 2
  %58 = load i8, ptr %57, align 1, !tbaa !36
  %59 = zext i8 %58 to i32
  %60 = ashr i32 %59, 3
  %61 = sext i32 %60 to i64
  %62 = getelementptr inbounds [32 x i16], ptr %55, i64 0, i64 %61
  store ptr %62, ptr %11, align 8, !tbaa !59
  %63 = load ptr, ptr %11, align 8, !tbaa !59
  %64 = load i16, ptr %63, align 2, !tbaa !83
  %65 = add i16 %64, 1
  store i16 %65, ptr %63, align 2, !tbaa !83
  %66 = zext i16 %65 to i32
  %67 = icmp sle i32 %66, 0
  br i1 %67, label %68, label %72

68:                                               ; preds = %39
  %69 = load ptr, ptr %11, align 8, !tbaa !59
  %70 = load i16, ptr %69, align 2, !tbaa !83
  %71 = add i16 %70, -1
  store i16 %71, ptr %69, align 2, !tbaa !83
  br label %72

72:                                               ; preds = %68, %39
  %73 = load ptr, ptr %10, align 8, !tbaa !82
  %74 = getelementptr inbounds i8, ptr %73, i64 3
  store ptr %74, ptr %10, align 8, !tbaa !82
  br label %75

75:                                               ; preds = %72
  %76 = load i32, ptr %14, align 4, !tbaa !57
  %77 = add i32 %76, -1
  store i32 %77, ptr %14, align 4, !tbaa !57
  br label %36, !llvm.loop !84

78:                                               ; preds = %36
  br label %79

79:                                               ; preds = %78
  %80 = load i32, ptr %13, align 4, !tbaa !57
  %81 = add nsw i32 %80, 1
  store i32 %81, ptr %13, align 4, !tbaa !57
  br label %25, !llvm.loop !85

82:                                               ; preds = %25
  call void @llvm.lifetime.end.p0(i64 4, ptr %15) #3
  call void @llvm.lifetime.end.p0(i64 4, ptr %14) #3
  call void @llvm.lifetime.end.p0(i64 4, ptr %13) #3
  call void @llvm.lifetime.end.p0(i64 8, ptr %12) #3
  call void @llvm.lifetime.end.p0(i64 8, ptr %11) #3
  call void @llvm.lifetime.end.p0(i64 8, ptr %10) #3
  call void @llvm.lifetime.end.p0(i64 8, ptr %9) #3
  ret void
}