; Function Attrs: nofree norecurse nosync nounwind memory(readwrite, inaccessiblemem: none) uwtable
define internal void @prescan_quantize(ptr noundef readonly captures(none) %0, ptr noundef readonly captures(none) %1, ptr readnone captures(none) %2, i32 noundef %3) #3 {
  %5 = getelementptr inbounds nuw i8, ptr %0, i64 624
  %6 = load ptr, ptr %5, align 8, !tbaa !39
  %7 = getelementptr inbounds nuw i8, ptr %6, i64 56
  %8 = load ptr, ptr %7, align 8, !tbaa !53
  %9 = getelementptr inbounds nuw i8, ptr %0, i64 136
  %10 = load i32, ptr %9, align 8, !tbaa !65
  %11 = icmp slt i32 %3, 1
  %.not19 = icmp eq i32 %10, 0
  %or.cond = select i1 %11, i1 true, i1 %.not19
  br i1 %or.cond, label %._crit_edge25, label %.lr.ph.preheader

.lr.ph.preheader:                                 ; preds = %4
  %wide.trip.count = zext nneg i32 %3 to i64
  br label %.lr.ph

.lr.ph:                                           ; preds = %.lr.ph.preheader, %._crit_edge
  %indvars.iv = phi i64 [ 0, %.lr.ph.preheader ], [ %indvars.iv.next, %._crit_edge ]
  %12 = getelementptr inbounds nuw ptr, ptr %1, i64 %indvars.iv
  %13 = load ptr, ptr %12, align 8, !tbaa !74
  br label %14

14:                                               ; preds = %.lr.ph, %14
  %.021 = phi ptr [ %13, %.lr.ph ], [ %32, %14 ]
  %.01720 = phi i32 [ %10, %.lr.ph ], [ %33, %14 ]
  %15 = load i8, ptr %.021, align 1, !tbaa !34
  %16 = lshr i8 %15, 3
  %17 = zext nneg i8 %16 to i64
  %18 = getelementptr inbounds nuw ptr, ptr %8, i64 %17
  %19 = load ptr, ptr %18, align 8, !tbaa !55
  %20 = getelementptr inbounds nuw i8, ptr %.021, i64 1
  %21 = load i8, ptr %20, align 1, !tbaa !34
  %22 = lshr i8 %21, 2
  %23 = zext nneg i8 %22 to i64
  %24 = getelementptr inbounds nuw i8, ptr %.021, i64 2
  %25 = load i8, ptr %24, align 1, !tbaa !34
  %26 = lshr i8 %25, 3
  %27 = zext nneg i8 %26 to i64
  %28 = getelementptr inbounds nuw [32 x i16], ptr %19, i64 %23, i64 %27
  %29 = load i16, ptr %28, align 2, !tbaa !75
  %30 = add i16 %29, 1
  %31 = icmp eq i16 %30, 0
  %spec.select = select i1 %31, i16 %29, i16 %30
  store i16 %spec.select, ptr %28, align 2, !tbaa !75
  %32 = getelementptr inbounds nuw i8, ptr %.021, i64 3
  %33 = add i32 %.01720, -1
  %.not = icmp eq i32 %33, 0
  br i1 %.not, label %._crit_edge, label %14, !llvm.loop !76

._crit_edge:                                      ; preds = %14
  %indvars.iv.next = add nuw nsw i64 %indvars.iv, 1
  %exitcond.not = icmp eq i64 %indvars.iv.next, %wide.trip.count
  br i1 %exitcond.not, label %._crit_edge25, label %.lr.ph, !llvm.loop !77

._crit_edge25:                                    ; preds = %._crit_edge, %4
  ret void
}